(lp0
(dp1
Vdomain
p2
Vwww.pinterest.com
p3
sVname
p4
Vc_dpr
p5
sVvalue
p6
V1
p7
sVexpiry
p8
NsVpath
p9
V/
p10
sVhttpOnly
p11
I00
sVsecure
p12
I00
sa(dp13
Vdomain
p14
Vwww.pinterest.com
p15
sVname
p16
VsessionFunnelEventLogged
p17
sVvalue
p18
g7
sVexpiry
p19
I1472441846
sVpath
p20
g10
sVhttpOnly
p21
I00
sVsecure
p22
I00
sa(dp23
Vdomain
p24
Vwww.pinterest.com
p25
sVname
p26
Vbei
p27
sVvalue
p28
Vfalse
p29
sVexpiry
p30
NsVpath
p31
g10
sVhttpOnly
p32
I00
sVsecure
p33
I00
sa(dp34
Vdomain
p35
V.pinterest.com
p36
sVname
p37
V_b
p38
sVvalue
p39
V"AR/GgFT62/1G/IYy1HZ8Zc7h0qET7lPxFEJpFkYp8FtvyDP4gzdD11mij/Y+M2c8U1Q="
p40
sVexpiry
p41
I1787758685
sVpath
p42
g10
sVhttpOnly
p43
I00
sVsecure
p44
I00
sa(dp45
Vdomain
p46
V.pinterest.com
p47
sVname
p48
V_auth
p49
sVvalue
p50
g7
sVexpiry
p51
I1503502684
sVpath
p52
g10
sVhttpOnly
p53
I01
sVsecure
p54
I01
sa(dp55
Vdomain
p56
Vwww.pinterest.com
p57
sVname
p58
Vcsrftoken
p59
sVvalue
p60
V8PNAmWA23POPjEfgFn1XeGfG5MulyVqR
p61
sVexpiry
p62
I1503848285
sVpath
p63
g10
sVhttpOnly
p64
I00
sVsecure
p65
I01
sa(dp66
Vdomain
p67
V.pinterest.com
p68
sVname
p69
V_pinterest_sess
p70
sVvalue
p71
V"TWc9PSYzYmpQa0dOVjIvcDZHZ3hsc0hzNWJKNzdzVUxhRjJjbXRmbloveGpDaHFzV0wwV0ZtM3kzWHdXMVl6Q2lkNXhsWndtcDI3dkpxZTVzajg0cnBSRExjQU1SQnpxeCthN0JjTVIvVVM5Z3IvTmlKWVVTSXUwTXhwd0Vpdlkzck9CUHhNcm90dHVrdmZ6NGZWQTZpQWVoRmpqdUhlMzh3OS9ockM2NUFOdmdlTXZWYzZUTlZXZER4Ymhqb1dQQ2JRWExMRS9vZ3duVlV2blYxZnpYS1NjMDFWbGcxaStyb2RSc01XNjJQbGVUaUl4d1FISmQ5bGhZUms5K3VBbkRIRnQ1TnFFZnlCZEkvQUVJaUFOaExqbFpKY3lBWVVyWkRDZzBSWW1DcEhvTDdwbXBJZFUwWmp5VU00N00zamZKeHl3U3ptaXZlRlFpUmN4SXVBVzAycC9kYkZIei8zSTc3MTVxai9KaDhrdys4bzBPODJidmJmZ0NmL015eHFQY0VhSGF2WXZqZ3JlN2ttZU5UZ3JaWnYyTUh4LzAyUE9RYy9pSENDMkpoYTRsVlBhNWFXRmNlZlJTQXdROGFaVnNvK3JvYkJaVHF6T2NVVTR1Nm5GV1NNcllPSGl4K2JVYUhQemFhUWtvR3U1clgyTT0mT2JDSlo0L2FFQldNSlF1T3htazB0cW5VTkQ0PQ=="
p72
sVexpiry
p73
I1503502684
sVpath
p74
g10
sVhttpOnly
p75
I01
sVsecure
p76
I01
sa(dp77
Vdomain
p78
Vwww.pinterest.com
p79
sVname
p80
Vcm_sub
p81
sVvalue
p82
Vnone
p83
sVexpiry
p84
I1503934693
sVpath
p85
g10
sVhttpOnly
p86
I00
sVsecure
p87
I00
sa.